target datalayout = "e-m:e-p270:32:32-p271:32:32-p272:64:64-i64:64-i128:128-f80:128-n8:16:32:64-S128"
target triple = "x86_64-pc-linux-gnu"

%"class.std::vector" = type { %"struct.std::_Vector_base" }
%"struct.std::_Vector_base" = type { %"struct.std::_Vector_base<float, std::allocator<float>>::_Vector_impl" }
%"struct.std::_Vector_base<float, std::allocator<float>>::_Vector_impl" = type { %"struct.std::_Vector_base<float, std::allocator<float>>::_Vector_impl_data" }
%"struct.std::_Vector_base<float, std::allocator<float>>::_Vector_impl_data" = type { ptr, ptr, ptr }
%"struct.faiss::ScalarQuantizer::SQuantizer" = type { ptr }
%"struct.faiss::(anonymous namespace)::QuantizerTemplate.5" = type { %"struct.faiss::ScalarQuantizer::SQuantizer", i64, float, float }
%"struct.faiss::(anonymous namespace)::DCTemplate" = type { %"struct.faiss::ScalarQuantizer::SQDistanceComputer", %"struct.faiss::(anonymous namespace)::QuantizerTemplate.5" }
%"struct.faiss::ScalarQuantizer::SQDistanceComputer" = type { %"struct.faiss::FlatCodesDistanceComputer", ptr }
%"struct.faiss::FlatCodesDistanceComputer" = type { %"struct.faiss::DistanceComputer", ptr, i64 }
%"struct.faiss::DistanceComputer" = type { ptr }
%"struct.faiss::(anonymous namespace)::IVFSQScannerL2" = type { %"struct.faiss::InvertedListScanner", %"struct.faiss::(anonymous namespace)::DCTemplate", i8, ptr, ptr, %"class.std::vector" }
%"struct.faiss::InvertedListScanner" = type { ptr, i64, i8, i8, ptr, i64 }

; Function Attrs: mustprogress nounwind uwtable
define linkonce_odr void @_ZNSt15__new_allocatorIfED2Ev(ptr noundef nonnull align 1 dereferenceable(1) %0) unnamed_addr #1 comdat align 2 {
  %2 = alloca ptr, align 8
  store ptr %0, ptr %2, align 8
  ret void
}

; Function Attrs: mustprogress nounwind uwtable
define linkonce_odr void @_ZNSt15__new_allocatorIfE10deallocateEPfm(ptr noundef nonnull align 1 dereferenceable(1) %0, ptr noundef %1, i64 noundef %2) #1 comdat align 2 {
  %4 = alloca ptr, align 8
  %5 = alloca ptr, align 8
  %6 = alloca i64, align 8
  store ptr %0, ptr %4, align 8
  store ptr %1, ptr %5, align 8
  store i64 %2, ptr %6, align 8
  %7 = load ptr, ptr %5, align 8
  call void @_ZdlPv(ptr noundef %7) #14
  ret void
}

; Function Attrs: mustprogress nounwind uwtable
define linkonce_odr void @_ZN5faiss16DistanceComputerD2Ev(ptr noundef nonnull align 8 dereferenceable(8) %0) unnamed_addr #1 comdat align 2 {
  %2 = alloca ptr, align 8
  store ptr %0, ptr %2, align 8
  ret void
}

; Function Attrs: mustprogress nounwind uwtable
define linkonce_odr void @_ZNSaIfED2Ev(ptr noundef nonnull align 1 dereferenceable(1) %0) unnamed_addr #1 comdat align 2 {
  %2 = alloca ptr, align 8
  store ptr %0, ptr %2, align 8
  %3 = load ptr, ptr %2, align 8
  call void @_ZNSt15__new_allocatorIfED2Ev(ptr noundef nonnull align 1 dereferenceable(1) %3) #12
  ret void
}

; Function Attrs: mustprogress uwtable
define linkonce_odr void @_ZNSt16allocator_traitsISaIfEE10deallocateERS0_Pfm(ptr noundef nonnull align 1 dereferenceable(1) %0, ptr noundef %1, i64 noundef %2) #0 comdat align 2 {
  %4 = alloca ptr, align 8
  %5 = alloca ptr, align 8
  %6 = alloca i64, align 8
  store ptr %0, ptr %4, align 8
  store ptr %1, ptr %5, align 8
  store i64 %2, ptr %6, align 8
  %7 = load ptr, ptr %4, align 8
  %8 = load ptr, ptr %5, align 8
  %9 = load i64, ptr %6, align 8
  call void @_ZNSt15__new_allocatorIfE10deallocateEPfm(ptr noundef nonnull align 1 dereferenceable(1) %7, ptr noundef %8, i64 noundef %9)
  ret void
}

; Function Attrs: mustprogress nounwind uwtable
define linkonce_odr void @_ZNSt12_Destroy_auxILb1EE9__destroyIPfEEvT_S3_(ptr noundef %0, ptr noundef %1) #1 comdat align 2 {
  %3 = alloca ptr, align 8
  %4 = alloca ptr, align 8
  store ptr %0, ptr %3, align 8
  store ptr %1, ptr %4, align 8
  ret void
}

; Function Attrs: mustprogress nounwind uwtable
define linkonce_odr void @_ZN5faiss25FlatCodesDistanceComputerD2Ev(ptr noundef nonnull align 8 dereferenceable(24) %0) unnamed_addr #1 comdat align 2 {
  %2 = alloca ptr, align 8
  store ptr %0, ptr %2, align 8
  %3 = load ptr, ptr %2, align 8
  call void @_ZN5faiss16DistanceComputerD2Ev(ptr noundef nonnull align 8 dereferenceable(8) %3) #12
  ret void
}

; Function Attrs: mustprogress nounwind uwtable
define linkonce_odr void @_ZN5faiss15ScalarQuantizer10SQuantizerD2Ev(ptr noundef nonnull align 8 dereferenceable(8) %0) unnamed_addr #1 comdat align 2 {
  %2 = alloca ptr, align 8
  store ptr %0, ptr %2, align 8
  ret void
}

; Function Attrs: mustprogress nounwind uwtable
define linkonce_odr void @_ZNSt12_Vector_baseIfSaIfEE12_Vector_implD2Ev(ptr noundef nonnull align 8 dereferenceable(24) %0) unnamed_addr #1 comdat align 2 {
  %2 = alloca ptr, align 8
  store ptr %0, ptr %2, align 8
  %3 = load ptr, ptr %2, align 8
  call void @_ZNSaIfED2Ev(ptr noundef nonnull align 1 dereferenceable(1) %3) #12
  ret void
}

; Function Attrs: mustprogress uwtable
define linkonce_odr void @_ZNSt12_Vector_baseIfSaIfEE13_M_deallocateEPfm(ptr noundef nonnull align 8 dereferenceable(24) %0, ptr noundef %1, i64 noundef %2) #0 comdat align 2 {
  %4 = alloca ptr, align 8
  %5 = alloca ptr, align 8
  %6 = alloca i64, align 8
  store ptr %0, ptr %4, align 8
  store ptr %1, ptr %5, align 8
  store i64 %2, ptr %6, align 8
  %7 = load ptr, ptr %4, align 8
  %8 = load ptr, ptr %5, align 8
  %9 = icmp ne ptr %8, null
  br i1 %9, label %10, label %14

10:                                               ; preds = %3
  %11 = getelementptr inbounds %"struct.std::_Vector_base", ptr %7, i32 0, i32 0
  %12 = load ptr, ptr %5, align 8
  %13 = load i64, ptr %6, align 8
  call void @_ZNSt16allocator_traitsISaIfEE10deallocateERS0_Pfm(ptr noundef nonnull align 1 dereferenceable(1) %11, ptr noundef %12, i64 noundef %13)
  br label %14

14:                                               ; preds = %10, %3
  ret void
}

; Function Attrs: mustprogress uwtable
define linkonce_odr void @_ZSt8_DestroyIPfEvT_S1_(ptr noundef %0, ptr noundef %1) #0 comdat {
  %3 = alloca ptr, align 8
  %4 = alloca ptr, align 8
  store ptr %0, ptr %3, align 8
  store ptr %1, ptr %4, align 8
  %5 = load ptr, ptr %3, align 8
  %6 = load ptr, ptr %4, align 8
  call void @_ZNSt12_Destroy_auxILb1EE9__destroyIPfEEvT_S3_(ptr noundef %5, ptr noundef %6)
  ret void
}

; Function Attrs: mustprogress nounwind uwtable
define linkonce_odr void @_ZN5faiss15ScalarQuantizer18SQDistanceComputerD2Ev(ptr noundef nonnull align 8 dereferenceable(32) %0) unnamed_addr #1 comdat align 2 {
  %2 = alloca ptr, align 8
  store ptr %0, ptr %2, align 8
  %3 = load ptr, ptr %2, align 8
  call void @_ZN5faiss25FlatCodesDistanceComputerD2Ev(ptr noundef nonnull align 8 dereferenceable(24) %3) #12
  ret void
}

; Function Attrs: mustprogress nounwind uwtable
define internal void @_ZN5faiss12_GLOBAL__N_117QuantizerTemplateINS0_9Codec8bitELb1ELi1EED2Ev(ptr noundef nonnull align 8 dereferenceable(24) %0) unnamed_addr #1 align 2 {
  %2 = alloca ptr, align 8
  store ptr %0, ptr %2, align 8
  %3 = load ptr, ptr %2, align 8
  call void @_ZN5faiss15ScalarQuantizer10SQuantizerD2Ev(ptr noundef nonnull align 8 dereferenceable(8) %3) #12
  ret void
}

; Function Attrs: noreturn nounwind uwtable
define linkonce_odr hidden void @__clang_call_terminate(ptr noundef %0) #3 comdat {
  %2 = call ptr @__cxa_begin_catch(ptr %0) #12
  call void @_ZSt9terminatev() #15
  unreachable
}

; Function Attrs: mustprogress nounwind uwtable
define linkonce_odr void @_ZNSt12_Vector_baseIfSaIfEED2Ev(ptr noundef nonnull align 8 dereferenceable(24) %0) unnamed_addr #1 comdat align 2 personality ptr @__gxx_personality_v0 {
  %2 = alloca ptr, align 8
  store ptr %0, ptr %2, align 8
  %3 = load ptr, ptr %2, align 8
  %4 = getelementptr inbounds %"struct.std::_Vector_base", ptr %3, i32 0, i32 0
  %5 = getelementptr inbounds %"struct.std::_Vector_base<float, std::allocator<float>>::_Vector_impl_data", ptr %4, i32 0, i32 0
  %6 = load ptr, ptr %5, align 8
  %7 = getelementptr inbounds %"struct.std::_Vector_base", ptr %3, i32 0, i32 0
  %8 = getelementptr inbounds %"struct.std::_Vector_base<float, std::allocator<float>>::_Vector_impl_data", ptr %7, i32 0, i32 2
  %9 = load ptr, ptr %8, align 8
  %10 = getelementptr inbounds %"struct.std::_Vector_base", ptr %3, i32 0, i32 0
  %11 = getelementptr inbounds %"struct.std::_Vector_base<float, std::allocator<float>>::_Vector_impl_data", ptr %10, i32 0, i32 0
  %12 = load ptr, ptr %11, align 8
  %13 = ptrtoint ptr %9 to i64
  %14 = ptrtoint ptr %12 to i64
  %15 = sub i64 %13, %14
  %16 = sdiv exact i64 %15, 4
  invoke void @_ZNSt12_Vector_baseIfSaIfEE13_M_deallocateEPfm(ptr noundef nonnull align 8 dereferenceable(24) %3, ptr noundef %6, i64 noundef %16)
          to label %17 unwind label %19

17:                                               ; preds = %1
  %18 = getelementptr inbounds %"struct.std::_Vector_base", ptr %3, i32 0, i32 0
  call void @_ZNSt12_Vector_baseIfSaIfEE12_Vector_implD2Ev(ptr noundef nonnull align 8 dereferenceable(24) %18) #12
  ret void

19:                                               ; preds = %1
  %20 = landingpad { ptr, i32 }
          catch ptr null
  %21 = extractvalue { ptr, i32 } %20, 0
  call void @__clang_call_terminate(ptr %21) #15
  unreachable
}

; Function Attrs: mustprogress uwtable
define linkonce_odr void @_ZSt8_DestroyIPffEvT_S1_RSaIT0_E(ptr noundef %0, ptr noundef %1, ptr noundef nonnull align 1 dereferenceable(1) %2) #0 comdat {
  %4 = alloca ptr, align 8
  %5 = alloca ptr, align 8
  %6 = alloca ptr, align 8
  store ptr %0, ptr %4, align 8
  store ptr %1, ptr %5, align 8
  store ptr %2, ptr %6, align 8
  %7 = load ptr, ptr %4, align 8
  %8 = load ptr, ptr %5, align 8
  call void @_ZSt8_DestroyIPfEvT_S1_(ptr noundef %7, ptr noundef %8)
  ret void
}

; Function Attrs: mustprogress nounwind uwtable
define linkonce_odr noundef nonnull align 1 dereferenceable(1) ptr @_ZNSt12_Vector_baseIfSaIfEE19_M_get_Tp_allocatorEv(ptr noundef nonnull align 8 dereferenceable(24) %0) #1 comdat align 2 {
  %2 = alloca ptr, align 8
  store ptr %0, ptr %2, align 8
  %3 = load ptr, ptr %2, align 8
  %4 = getelementptr inbounds %"struct.std::_Vector_base", ptr %3, i32 0, i32 0
  ret ptr %4
}

; Function Attrs: mustprogress nounwind uwtable
define linkonce_odr void @_ZN5faiss19InvertedListScannerD2Ev(ptr noundef nonnull align 8 dereferenceable(40) %0) unnamed_addr #1 comdat align 2 {
  %2 = alloca ptr, align 8
  store ptr %0, ptr %2, align 8
  ret void
}

; Function Attrs: mustprogress nounwind uwtable
define internal void @_ZN5faiss12_GLOBAL__N_110DCTemplateINS0_17QuantizerTemplateINS0_9Codec8bitELb1ELi1EEENS0_12SimilarityL2ILi1EEELi1EED2Ev(ptr noundef nonnull align 8 dereferenceable(56) %0) unnamed_addr #1 align 2 {
  %2 = alloca ptr, align 8
  store ptr %0, ptr %2, align 8
  %3 = load ptr, ptr %2, align 8
  %4 = getelementptr inbounds %"struct.faiss::(anonymous namespace)::DCTemplate", ptr %3, i32 0, i32 1
  call void @_ZN5faiss12_GLOBAL__N_117QuantizerTemplateINS0_9Codec8bitELb1ELi1EED2Ev(ptr noundef nonnull align 8 dereferenceable(24) %4) #12
  call void @_ZN5faiss15ScalarQuantizer18SQDistanceComputerD2Ev(ptr noundef nonnull align 8 dereferenceable(32) %3) #12
  ret void
}

; Function Attrs: mustprogress nounwind uwtable
define linkonce_odr void @_ZNSt6vectorIfSaIfEED2Ev(ptr noundef nonnull align 8 dereferenceable(24) %0) unnamed_addr #1 comdat align 2 personality ptr @__gxx_personality_v0 {
  %2 = alloca ptr, align 8
  store ptr %0, ptr %2, align 8
  %3 = load ptr, ptr %2, align 8
  %4 = getelementptr inbounds %"struct.std::_Vector_base", ptr %3, i32 0, i32 0
  %5 = getelementptr inbounds %"struct.std::_Vector_base<float, std::allocator<float>>::_Vector_impl_data", ptr %4, i32 0, i32 0
  %6 = load ptr, ptr %5, align 8
  %7 = getelementptr inbounds %"struct.std::_Vector_base", ptr %3, i32 0, i32 0
  %8 = getelementptr inbounds %"struct.std::_Vector_base<float, std::allocator<float>>::_Vector_impl_data", ptr %7, i32 0, i32 1
  %9 = load ptr, ptr %8, align 8
  %10 = call noundef nonnull align 1 dereferenceable(1) ptr @_ZNSt12_Vector_baseIfSaIfEE19_M_get_Tp_allocatorEv(ptr noundef nonnull align 8 dereferenceable(24) %3) #12
  invoke void @_ZSt8_DestroyIPffEvT_S1_RSaIT0_E(ptr noundef %6, ptr noundef %9, ptr noundef nonnull align 1 dereferenceable(1) %10)
          to label %11 unwind label %12

11:                                               ; preds = %1
  call void @_ZNSt12_Vector_baseIfSaIfEED2Ev(ptr noundef nonnull align 8 dereferenceable(24) %3) #12
  ret void

12:                                               ; preds = %1
  %13 = landingpad { ptr, i32 }
          catch ptr null
  %14 = extractvalue { ptr, i32 } %13, 0
  call void @__clang_call_terminate(ptr %14) #15
  unreachable
}

; Function Attrs: mustprogress nounwind uwtable
define internal void @_ZN5faiss12_GLOBAL__N_114IVFSQScannerL2INS0_10DCTemplateINS0_17QuantizerTemplateINS0_9Codec8bitELb1ELi1EEENS0_12SimilarityL2ILi1EEELi1EEELi2EED2Ev(ptr noundef nonnull align 8 dereferenceable(144) %0) unnamed_addr #1 align 2 {
  %2 = alloca ptr, align 8
  store ptr %0, ptr %2, align 8
  %3 = load ptr, ptr %2, align 8
  store ptr getelementptr inbounds ({ [11 x ptr] }, ptr @_ZTVN5faiss12_GLOBAL__N_114IVFSQScannerL2INS0_10DCTemplateINS0_17QuantizerTemplateINS0_9Codec8bitELb1ELi1EEENS0_12SimilarityL2ILi1EEELi1EEELi2EEE, i32 0, i32 0, i32 2), ptr %3, align 8
  %4 = getelementptr inbounds %"struct.faiss::(anonymous namespace)::IVFSQScannerL2", ptr %3, i32 0, i32 5
  call void @_ZNSt6vectorIfSaIfEED2Ev(ptr noundef nonnull align 8 dereferenceable(24) %4) #12
  %5 = getelementptr inbounds %"struct.faiss::(anonymous namespace)::IVFSQScannerL2", ptr %3, i32 0, i32 1
  call void @_ZN5faiss12_GLOBAL__N_110DCTemplateINS0_17QuantizerTemplateINS0_9Codec8bitELb1ELi1EEENS0_12SimilarityL2ILi1EEELi1EED2Ev(ptr noundef nonnull align 8 dereferenceable(56) %5) #12
  call void @_ZN5faiss19InvertedListScannerD2Ev(ptr noundef nonnull align 8 dereferenceable(40) %3) #12
  ret void
}

; Function Attrs: mustprogress nounwind uwtable
define internal void @_ZN5faiss12_GLOBAL__N_114IVFSQScannerL2INS0_10DCTemplateINS0_17QuantizerTemplateINS0_9Codec8bitELb1ELi1EEENS0_12SimilarityL2ILi1EEELi1EEELi2EED0Ev(ptr noundef nonnull align 8 dereferenceable(144) %0) unnamed_addr #1 align 2 {
  %2 = alloca ptr, align 8
  store ptr %0, ptr %2, align 8
  %3 = load ptr, ptr %2, align 8
  call void @_ZN5faiss12_GLOBAL__N_114IVFSQScannerL2INS0_10DCTemplateINS0_17QuantizerTemplateINS0_9Codec8bitELb1ELi1EEENS0_12SimilarityL2ILi1EEELi1EEELi2EED2Ev(ptr noundef nonnull align 8 dereferenceable(144) %3) #12
  call void @_ZdlPv(ptr noundef %3) #14
  ret void
}